target datalayout = "e-m:e-p270:32:32-p271:32:32-p272:64:64-i64:64-i128:128-f80:128-n8:16:32:64-S128"
target triple = "x86_64-pc-linux-gnu"

%struct.numeric = type { i32, i32, i32, i32, i32, ptr, ptr }

; Function Attrs: nounwind uwtable
define internal i32 @sub_abs(ptr noundef %0, ptr noundef %1, ptr noundef %2) #0 {
  %4 = alloca i32, align 4
  %5 = alloca ptr, align 8
  %6 = alloca ptr, align 8
  %7 = alloca ptr, align 8
  %8 = alloca ptr, align 8
  %9 = alloca ptr, align 8
  %10 = alloca i32, align 4
  %11 = alloca i32, align 4
  %12 = alloca i32, align 4
  %13 = alloca i32, align 4
  %14 = alloca i32, align 4
  %15 = alloca i32, align 4
  %16 = alloca i32, align 4
  %17 = alloca i32, align 4
  %18 = alloca i32, align 4
  %19 = alloca i32, align 4
  %20 = alloca ptr, align 8
  %21 = alloca ptr, align 8
  %22 = alloca i32, align 4
  store ptr %0, ptr %5, align 8
  store ptr %1, ptr %6, align 8
  store ptr %2, ptr %7, align 8
  call void @llvm.lifetime.start.p0(i64 8, ptr %8) #8
  call void @llvm.lifetime.start.p0(i64 8, ptr %9) #8
  call void @llvm.lifetime.start.p0(i64 4, ptr %10) #8
  call void @llvm.lifetime.start.p0(i64 4, ptr %11) #8
  call void @llvm.lifetime.start.p0(i64 4, ptr %12) #8
  call void @llvm.lifetime.start.p0(i64 4, ptr %13) #8
  call void @llvm.lifetime.start.p0(i64 4, ptr %14) #8
  call void @llvm.lifetime.start.p0(i64 4, ptr %15) #8
  call void @llvm.lifetime.start.p0(i64 4, ptr %16) #8
  call void @llvm.lifetime.start.p0(i64 4, ptr %17) #8
  store i32 0, ptr %17, align 4
  call void @llvm.lifetime.start.p0(i64 4, ptr %18) #8
  %23 = load ptr, ptr %5, align 8
  %24 = getelementptr inbounds nuw %struct.numeric, ptr %23, i32 0, i32 0
  %25 = load i32, ptr %24, align 8
  store i32 %25, ptr %18, align 4
  call void @llvm.lifetime.start.p0(i64 4, ptr %19) #8
  %26 = load ptr, ptr %6, align 8
  %27 = getelementptr inbounds nuw %struct.numeric, ptr %26, i32 0, i32 0
  %28 = load i32, ptr %27, align 8
  store i32 %28, ptr %19, align 4
  call void @llvm.lifetime.start.p0(i64 8, ptr %20) #8
  %29 = load ptr, ptr %5, align 8
  %30 = getelementptr inbounds nuw %struct.numeric, ptr %29, i32 0, i32 6
  %31 = load ptr, ptr %30, align 8
  store ptr %31, ptr %20, align 8
  call void @llvm.lifetime.start.p0(i64 8, ptr %21) #8
  %32 = load ptr, ptr %6, align 8
  %33 = getelementptr inbounds nuw %struct.numeric, ptr %32, i32 0, i32 6
  %34 = load ptr, ptr %33, align 8
  store ptr %34, ptr %21, align 8
  %35 = load ptr, ptr %5, align 8
  %36 = getelementptr inbounds nuw %struct.numeric, ptr %35, i32 0, i32 1
  %37 = load i32, ptr %36, align 4
  store i32 %37, ptr %11, align 4
  %38 = load ptr, ptr %5, align 8
  %39 = getelementptr inbounds nuw %struct.numeric, ptr %38, i32 0, i32 2
  %40 = load i32, ptr %39, align 8
  %41 = load ptr, ptr %6, align 8
  %42 = getelementptr inbounds nuw %struct.numeric, ptr %41, i32 0, i32 2
  %43 = load i32, ptr %42, align 8
  %44 = icmp sgt i32 %40, %43
  br i1 %44, label %45, label %49

45:                                               ; preds = %3
  %46 = load ptr, ptr %5, align 8
  %47 = getelementptr inbounds nuw %struct.numeric, ptr %46, i32 0, i32 2
  %48 = load i32, ptr %47, align 8
  br label %53

49:                                               ; preds = %3
  %50 = load ptr, ptr %6, align 8
  %51 = getelementptr inbounds nuw %struct.numeric, ptr %50, i32 0, i32 2
  %52 = load i32, ptr %51, align 8
  br label %53

53:                                               ; preds = %49, %45
  %54 = phi i32 [ %48, %45 ], [ %52, %49 ]
  store i32 %54, ptr %12, align 4
  %55 = load ptr, ptr %5, align 8
  %56 = getelementptr inbounds nuw %struct.numeric, ptr %55, i32 0, i32 3
  %57 = load i32, ptr %56, align 4
  %58 = load ptr, ptr %6, align 8
  %59 = getelementptr inbounds nuw %struct.numeric, ptr %58, i32 0, i32 3
  %60 = load i32, ptr %59, align 4
  %61 = icmp sgt i32 %57, %60
  br i1 %61, label %62, label %66

62:                                               ; preds = %53
  %63 = load ptr, ptr %5, align 8
  %64 = getelementptr inbounds nuw %struct.numeric, ptr %63, i32 0, i32 3
  %65 = load i32, ptr %64, align 4
  br label %70

66:                                               ; preds = %53
  %67 = load ptr, ptr %6, align 8
  %68 = getelementptr inbounds nuw %struct.numeric, ptr %67, i32 0, i32 3
  %69 = load i32, ptr %68, align 4
  br label %70

70:                                               ; preds = %66, %62
  %71 = phi i32 [ %65, %62 ], [ %69, %66 ]
  store i32 %71, ptr %13, align 4
  %72 = load i32, ptr %12, align 4
  %73 = load i32, ptr %11, align 4
  %74 = add i32 %72, %73
  %75 = add i32 %74, 1
  store i32 %75, ptr %10, align 4
  %76 = load i32, ptr %10, align 4
  %77 = icmp sle i32 %76, 0
  br i1 %77, label %78, label %79

78:                                               ; preds = %70
  store i32 1, ptr %10, align 4
  br label %79

79:                                               ; preds = %78, %70
  %80 = load i32, ptr %10, align 4
  %81 = sext i32 %80 to i64
  %82 = call ptr @pgtypes_alloc(i64 noundef %81)
  store ptr %82, ptr %8, align 8
  %83 = icmp eq ptr %82, null
  br i1 %83, label %84, label %85

84:                                               ; preds = %79
  store i32 -1, ptr %4, align 4
  store i32 1, ptr %22, align 4
  br label %224

85:                                               ; preds = %79
  %86 = load ptr, ptr %8, align 8
  store ptr %86, ptr %9, align 8
  %87 = load i32, ptr %12, align 4
  %88 = load ptr, ptr %5, align 8
  %89 = getelementptr inbounds nuw %struct.numeric, ptr %88, i32 0, i32 1
  %90 = load i32, ptr %89, align 4
  %91 = add i32 %87, %90
  %92 = add i32 %91, 1
  store i32 %92, ptr %15, align 4
  %93 = load i32, ptr %12, align 4
  %94 = load ptr, ptr %6, align 8
  %95 = getelementptr inbounds nuw %struct.numeric, ptr %94, i32 0, i32 1
  %96 = load i32, ptr %95, align 4
  %97 = add i32 %93, %96
  %98 = add i32 %97, 1
  store i32 %98, ptr %16, align 4
  %99 = load i32, ptr %10, align 4
  %100 = sub i32 %99, 1
  store i32 %100, ptr %14, align 4
  br label %101

101:                                              ; preds = %159, %85
  %102 = load i32, ptr %14, align 4
  %103 = icmp sge i32 %102, 0
  br i1 %103, label %104, label %162

104:                                              ; preds = %101
  %105 = load i32, ptr %15, align 4
  %106 = add i32 %105, -1
  store i32 %106, ptr %15, align 4
  %107 = load i32, ptr %16, align 4
  %108 = add i32 %107, -1
  store i32 %108, ptr %16, align 4
  %109 = load i32, ptr %15, align 4
  %110 = icmp sge i32 %109, 0
  br i1 %110, label %111, label %124

111:                                              ; preds = %104
  %112 = load i32, ptr %15, align 4
  %113 = load i32, ptr %18, align 4
  %114 = icmp slt i32 %112, %113
  br i1 %114, label %115, label %124

115:                                              ; preds = %111
  %116 = load ptr, ptr %20, align 8
  %117 = load i32, ptr %15, align 4
  %118 = sext i32 %117 to i64
  %119 = getelementptr inbounds i8, ptr %116, i64 %118
  %120 = load i8, ptr %119, align 1
  %121 = zext i8 %120 to i32
  %122 = load i32, ptr %17, align 4
  %123 = add i32 %122, %121
  store i32 %123, ptr %17, align 4
  br label %124

124:                                              ; preds = %115, %111, %104
  %125 = load i32, ptr %16, align 4
  %126 = icmp sge i32 %125, 0
  br i1 %126, label %127, label %140

127:                                              ; preds = %124
  %128 = load i32, ptr %16, align 4
  %129 = load i32, ptr %19, align 4
  %130 = icmp slt i32 %128, %129
  br i1 %130, label %131, label %140

131:                                              ; preds = %127
  %132 = load ptr, ptr %21, align 8
  %133 = load i32, ptr %16, align 4
  %134 = sext i32 %133 to i64
  %135 = getelementptr inbounds i8, ptr %132, i64 %134
  %136 = load i8, ptr %135, align 1
  %137 = zext i8 %136 to i32
  %138 = load i32, ptr %17, align 4
  %139 = sub i32 %138, %137
  store i32 %139, ptr %17, align 4
  br label %140

140:                                              ; preds = %131, %127, %124
  %141 = load i32, ptr %17, align 4
  %142 = icmp slt i32 %141, 0
  br i1 %142, label %143, label %151

143:                                              ; preds = %140
  %144 = load i32, ptr %17, align 4
  %145 = add i32 %144, 10
  %146 = trunc i32 %145 to i8
  %147 = load ptr, ptr %9, align 8
  %148 = load i32, ptr %14, align 4
  %149 = sext i32 %148 to i64
  %150 = getelementptr inbounds i8, ptr %147, i64 %149
  store i8 %146, ptr %150, align 1
  store i32 -1, ptr %17, align 4
  br label %158

151:                                              ; preds = %140
  %152 = load i32, ptr %17, align 4
  %153 = trunc i32 %152 to i8
  %154 = load ptr, ptr %9, align 8
  %155 = load i32, ptr %14, align 4
  %156 = sext i32 %155 to i64
  %157 = getelementptr inbounds i8, ptr %154, i64 %156
  store i8 %153, ptr %157, align 1
  store i32 0, ptr %17, align 4
  br label %158

158:                                              ; preds = %151, %143
  br label %159

159:                                              ; preds = %158
  %160 = load i32, ptr %14, align 4
  %161 = add i32 %160, -1
  store i32 %161, ptr %14, align 4
  br label %101, !llvm.loop !23

162:                                              ; preds = %101
  br label %163

163:                                              ; preds = %173, %162
  %164 = load i32, ptr %10, align 4
  %165 = icmp sgt i32 %164, 0
  br i1 %165, label %166, label %171

166:                                              ; preds = %163
  %167 = load ptr, ptr %9, align 8
  %168 = load i8, ptr %167, align 1
  %169 = zext i8 %168 to i32
  %170 = icmp eq i32 %169, 0
  br label %171

171:                                              ; preds = %166, %163
  %172 = phi i1 [ false, %163 ], [ %170, %166 ]
  br i1 %172, label %173, label %180

173:                                              ; preds = %171
  %174 = load ptr, ptr %9, align 8
  %175 = getelementptr inbounds nuw i8, ptr %174, i32 1
  store ptr %175, ptr %9, align 8
  %176 = load i32, ptr %11, align 4
  %177 = add i32 %176, -1
  store i32 %177, ptr %11, align 4
  %178 = load i32, ptr %10, align 4
  %179 = add i32 %178, -1
  store i32 %179, ptr %10, align 4
  br label %163, !llvm.loop !24

180:                                              ; preds = %171
  br label %181

181:                                              ; preds = %195, %180
  %182 = load i32, ptr %10, align 4
  %183 = icmp sgt i32 %182, 0
  br i1 %183, label %184, label %193

184:                                              ; preds = %181
  %185 = load ptr, ptr %9, align 8
  %186 = load i32, ptr %10, align 4
  %187 = sub i32 %186, 1
  %188 = sext i32 %187 to i64
  %189 = getelementptr inbounds i8, ptr %185, i64 %188
  %190 = load i8, ptr %189, align 1
  %191 = zext i8 %190 to i32
  %192 = icmp eq i32 %191, 0
  br label %193

193:                                              ; preds = %184, %181
  %194 = phi i1 [ false, %181 ], [ %192, %184 ]
  br i1 %194, label %195, label %198

195:                                              ; preds = %193
  %196 = load i32, ptr %10, align 4
  %197 = add i32 %196, -1
  store i32 %197, ptr %10, align 4
  br label %181, !llvm.loop !25

198:                                              ; preds = %193
  %199 = load i32, ptr %10, align 4
  %200 = icmp eq i32 %199, 0
  br i1 %200, label %201, label %202

201:                                              ; preds = %198
  store i32 0, ptr %11, align 4
  br label %202

202:                                              ; preds = %201, %198
  %203 = load ptr, ptr %7, align 8
  %204 = getelementptr inbounds nuw %struct.numeric, ptr %203, i32 0, i32 5
  %205 = load ptr, ptr %204, align 8
  call void @free(ptr noundef %205) #8
  %206 = load i32, ptr %10, align 4
  %207 = load ptr, ptr %7, align 8
  %208 = getelementptr inbounds nuw %struct.numeric, ptr %207, i32 0, i32 0
  store i32 %206, ptr %208, align 8
  %209 = load ptr, ptr %8, align 8
  %210 = load ptr, ptr %7, align 8
  %211 = getelementptr inbounds nuw %struct.numeric, ptr %210, i32 0, i32 5
  store ptr %209, ptr %211, align 8
  %212 = load ptr, ptr %9, align 8
  %213 = load ptr, ptr %7, align 8
  %214 = getelementptr inbounds nuw %struct.numeric, ptr %213, i32 0, i32 6
  store ptr %212, ptr %214, align 8
  %215 = load i32, ptr %11, align 4
  %216 = load ptr, ptr %7, align 8
  %217 = getelementptr inbounds nuw %struct.numeric, ptr %216, i32 0, i32 1
  store i32 %215, ptr %217, align 4
  %218 = load i32, ptr %12, align 4
  %219 = load ptr, ptr %7, align 8
  %220 = getelementptr inbounds nuw %struct.numeric, ptr %219, i32 0, i32 2
  store i32 %218, ptr %220, align 8
  %221 = load i32, ptr %13, align 4
  %222 = load ptr, ptr %7, align 8
  %223 = getelementptr inbounds nuw %struct.numeric, ptr %222, i32 0, i32 3
  store i32 %221, ptr %223, align 4
  store i32 0, ptr %4, align 4
  store i32 1, ptr %22, align 4
  br label %224

224:                                              ; preds = %202, %84
  call void @llvm.lifetime.end.p0(i64 8, ptr %21) #8
  call void @llvm.lifetime.end.p0(i64 8, ptr %20) #8
  call void @llvm.lifetime.end.p0(i64 4, ptr %19) #8
  call void @llvm.lifetime.end.p0(i64 4, ptr %18) #8
  call void @llvm.lifetime.end.p0(i64 4, ptr %17) #8
  call void @llvm.lifetime.end.p0(i64 4, ptr %16) #8
  call void @llvm.lifetime.end.p0(i64 4, ptr %15) #8
  call void @llvm.lifetime.end.p0(i64 4, ptr %14) #8
  call void @llvm.lifetime.end.p0(i64 4, ptr %13) #8
  call void @llvm.lifetime.end.p0(i64 4, ptr %12) #8
  call void @llvm.lifetime.end.p0(i64 4, ptr %11) #8
  call void @llvm.lifetime.end.p0(i64 4, ptr %10) #8
  call void @llvm.lifetime.end.p0(i64 8, ptr %9) #8
  call void @llvm.lifetime.end.p0(i64 8, ptr %8) #8
  %225 = load i32, ptr %4, align 4
  ret i32 %225
}