; Function Attrs: nounwind uwtable
define internal fastcc range(i32 -1, 1) i32 @sub_abs(ptr noundef readonly captures(none) %0, ptr noundef readonly captures(none) %1, ptr noundef captures(none) %2) unnamed_addr #0 {
  %4 = load i32, ptr %0, align 8
  %5 = load i32, ptr %1, align 8
  %6 = getelementptr inbounds nuw i8, ptr %0, i64 32
  %7 = load ptr, ptr %6, align 8
  %8 = getelementptr inbounds nuw i8, ptr %1, i64 32
  %9 = load ptr, ptr %8, align 8
  %10 = getelementptr inbounds nuw i8, ptr %0, i64 4
  %11 = load i32, ptr %10, align 4
  %12 = getelementptr inbounds nuw i8, ptr %0, i64 8
  %13 = load i32, ptr %12, align 8
  %14 = getelementptr inbounds nuw i8, ptr %1, i64 8
  %15 = load i32, ptr %14, align 8
  %. = tail call i32 @llvm.smax.i32(i32 %13, i32 %15)
  %16 = getelementptr inbounds nuw i8, ptr %0, i64 12
  %17 = load i32, ptr %16, align 4
  %18 = getelementptr inbounds nuw i8, ptr %1, i64 12
  %19 = load i32, ptr %18, align 4
  %20 = tail call i32 @llvm.smax.i32(i32 %17, i32 %19)
  %21 = add i32 %., 1
  %22 = add i32 %21, %11
  %.fr = freeze i32 %22
  %spec.store.select = tail call i32 @llvm.smax.i32(i32 %.fr, i32 1)
  %23 = zext nneg i32 %spec.store.select to i64
  %24 = tail call ptr @pgtypes_alloc(i64 noundef %23) #14
  %25 = icmp eq ptr %24, null
  br i1 %25, label %81, label %26

26:                                               ; preds = %3
  %27 = load i32, ptr %10, align 4
  %28 = add i32 %21, %27
  %29 = getelementptr inbounds nuw i8, ptr %1, i64 4
  %30 = load i32, ptr %29, align 4
  %31 = add i32 %21, %30
  br label %32

32:                                               ; preds = %26, %52
  %indvars.iv = phi i64 [ %23, %26 ], [ %indvars.iv.next, %52 ]
  %.07591 = phi i32 [ 0, %26 ], [ %.2.lobit, %52 ]
  %.07790 = phi i32 [ %31, %26 ], [ %34, %52 ]
  %.07889 = phi i32 [ %28, %26 ], [ %33, %52 ]
  %indvars.iv.next = add nsw i64 %indvars.iv, -1
  %33 = add i32 %.07889, -1
  %34 = add i32 %.07790, -1
  %35 = icmp sgt i32 %33, -1
  %36 = icmp slt i32 %33, %4
  %or.cond = select i1 %35, i1 %36, i1 false
  br i1 %or.cond, label %37, label %43

37:                                               ; preds = %32
  %38 = zext nneg i32 %33 to i64
  %39 = getelementptr inbounds nuw i8, ptr %7, i64 %38
  %40 = load i8, ptr %39, align 1
  %41 = zext i8 %40 to i32
  %42 = add nsw i32 %.07591, %41
  br label %43

43:                                               ; preds = %37, %32
  %.176 = phi i32 [ %42, %37 ], [ %.07591, %32 ]
  %44 = icmp sgt i32 %34, -1
  %45 = icmp slt i32 %34, %5
  %or.cond87 = select i1 %44, i1 %45, i1 false
  br i1 %or.cond87, label %46, label %52

46:                                               ; preds = %43
  %47 = zext nneg i32 %34 to i64
  %48 = getelementptr inbounds nuw i8, ptr %9, i64 %47
  %49 = load i8, ptr %48, align 1
  %50 = zext i8 %49 to i32
  %51 = sub nsw i32 %.176, %50
  br label %52

52:                                               ; preds = %46, %43
  %.2 = phi i32 [ %51, %46 ], [ %.176, %43 ]
  %53 = icmp slt i32 %.2, 0
  %54 = trunc i32 %.2 to i8
  %55 = add i8 %54, 10
  %.sink = select i1 %53, i8 %55, i8 %54
  %.2.lobit = ashr i32 %.2, 31
  %56 = getelementptr inbounds nuw i8, ptr %24, i64 %indvars.iv.next
  store i8 %.sink, ptr %56, align 1
  %57 = icmp samesign ugt i64 %indvars.iv, 1
  br i1 %57, label %32, label %.preheader.preheader, !llvm.loop !21

.preheader.preheader:                             ; preds = %52
  %58 = zext nneg i32 %spec.store.select to i64
  %scevgep = getelementptr i8, ptr %24, i64 %58
  br label %.preheader

.preheader:                                       ; preds = %.preheader.preheader, %61
  %.07195 = phi ptr [ %62, %61 ], [ %24, %.preheader.preheader ]
  %.07294 = phi i32 [ %64, %61 ], [ %spec.store.select, %.preheader.preheader ]
  %.07393 = phi i32 [ %63, %61 ], [ %11, %.preheader.preheader ]
  %59 = load i8, ptr %.07195, align 1
  %60 = icmp eq i8 %59, 0
  br i1 %60, label %61, label %.critedge

61:                                               ; preds = %.preheader
  %62 = getelementptr inbounds nuw i8, ptr %.07195, i64 1
  %63 = add i32 %.07393, -1
  %64 = add i32 %.07294, -1
  %65 = icmp sgt i32 %.07294, 1
  br i1 %65, label %.preheader, label %.critedge2.thread114, !llvm.loop !22

.critedge:                                        ; preds = %.preheader
  %invariant.gep = getelementptr i8, ptr %.07195, i64 -1
  %66 = icmp sgt i32 %.07294, 0
  br i1 %66, label %.lr.ph, label %.critedge2

.lr.ph:                                           ; preds = %.critedge, %70
  %.196 = phi i32 [ %71, %70 ], [ %.07294, %.critedge ]
  %67 = zext nneg i32 %.196 to i64
  %gep = getelementptr i8, ptr %invariant.gep, i64 %67
  %68 = load i8, ptr %gep, align 1
  %69 = icmp eq i8 %68, 0
  br i1 %69, label %70, label %.critedge2.thread114

70:                                               ; preds = %.lr.ph
  %71 = add nsw i32 %.196, -1
  %72 = icmp sgt i32 %.196, 1
  br i1 %72, label %.lr.ph, label %.critedge2.thread114, !llvm.loop !23

.critedge2:                                       ; preds = %.critedge
  %73 = icmp eq i32 %.07294, 0
  %spec.select = select i1 %73, i32 0, i32 %.07393
  br label %.critedge2.thread114

.critedge2.thread114:                             ; preds = %61, %70, %.lr.ph, %.critedge2
  %.1.lcssa112 = phi i32 [ %.07294, %.critedge2 ], [ 0, %70 ], [ %.196, %.lr.ph ], [ 0, %61 ]
  %.071.lcssa105110 = phi ptr [ %.07195, %.critedge2 ], [ %.07195, %.lr.ph ], [ %.07195, %70 ], [ %scevgep, %61 ]
  %74 = phi i32 [ %spec.select, %.critedge2 ], [ 0, %70 ], [ %.07393, %.lr.ph ], [ 0, %61 ]
  %75 = getelementptr inbounds nuw i8, ptr %2, i64 24
  %76 = load ptr, ptr %75, align 8
  tail call void @free(ptr noundef %76) #14
  store i32 %.1.lcssa112, ptr %2, align 8
  store ptr %24, ptr %75, align 8
  %77 = getelementptr inbounds nuw i8, ptr %2, i64 32
  store ptr %.071.lcssa105110, ptr %77, align 8
  %78 = getelementptr inbounds nuw i8, ptr %2, i64 4
  store i32 %74, ptr %78, align 4
  %79 = getelementptr inbounds nuw i8, ptr %2, i64 8
  store i32 %., ptr %79, align 8
  %80 = getelementptr inbounds nuw i8, ptr %2, i64 12
  store i32 %20, ptr %80, align 4
  br label %81

81:                                               ; preds = %3, %.critedge2.thread114
  %.0 = phi i32 [ 0, %.critedge2.thread114 ], [ -1, %3 ]
  ret i32 %.0
}